target datalayout = "e-m:e-p270:32:32-p271:32:32-p272:64:64-i64:64-i128:128-f80:128-n8:16:32:64-S128"
target triple = "x86_64-pc-linux-gnu"

%struct._dcerpc_info = type { ptr, i32, i64, i8, i8, i8, i32, i32, i32, i32, i32, i32, i32, i32, ptr, ptr, ptr, ptr, %struct.anon }
%struct.anon = type { i8, ptr, ptr, ptr, i8 }

@hf_iremotewinspool_winspool_AsyncAddPrintProcessor_pEnvironment = internal global i32 0, align 4
@hf_iremotewinspool_winspool_AsyncAddPrintProcessor_pName = internal global i32 0, align 4
@hf_iremotewinspool_winspool_AsyncAddPrintProcessor_pPathName = internal global i32 0, align 4
@hf_iremotewinspool_winspool_AsyncAddPrintProcessor_pPrintProcessorName = internal global i32 0, align 4
@.str.567 = private unnamed_addr constant [32 x i8] c"winspool_AsyncAddPrintProcessor\00", align 1
@.str.606 = private unnamed_addr constant [26 x i8] c"Pointer to PName (uint16)\00", align 1
@.str.627 = private unnamed_addr constant [33 x i8] c"Pointer to PEnvironment (uint16)\00", align 1
@.str.654 = private unnamed_addr constant [30 x i8] c"Pointer to PPathName (uint16)\00", align 1
@.str.655 = private unnamed_addr constant [40 x i8] c"Pointer to PPrintProcessorName (uint16)\00", align 1

; Function Attrs: null_pointer_is_valid sspstrong uwtable
define internal i32 @iremotewinspool_dissect_element_winspool_AsyncAddPrintProcessor_pPrintProcessorName(ptr noundef %0, i32 noundef %1, ptr noundef %2, ptr noundef %3, ptr noundef %4, ptr noundef %5) #0 {
  %7 = alloca ptr, align 8
  %8 = alloca i32, align 4
  %9 = alloca ptr, align 8
  %10 = alloca ptr, align 8
  %11 = alloca ptr, align 8
  %12 = alloca ptr, align 8
  store ptr %0, ptr %7, align 8
  store i32 %1, ptr %8, align 4
  store ptr %2, ptr %9, align 8
  store ptr %3, ptr %10, align 8
  store ptr %4, ptr %11, align 8
  store ptr %5, ptr %12, align 8
  %13 = load ptr, ptr %7, align 8
  %14 = load i32, ptr %8, align 4
  %15 = load ptr, ptr %9, align 8
  %16 = load ptr, ptr %10, align 8
  %17 = load ptr, ptr %11, align 8
  %18 = load ptr, ptr %12, align 8
  %19 = load i32, ptr @hf_iremotewinspool_winspool_AsyncAddPrintProcessor_pPrintProcessorName, align 4
  %20 = call i32 @dissect_ndr_toplevel_pointer(ptr noundef %13, i32 noundef %14, ptr noundef %15, ptr noundef %16, ptr noundef %17, ptr noundef %18, ptr noundef @iremotewinspool_dissect_element_winspool_AsyncAddPrintProcessor_pPrintProcessorName_, i32 noundef 1, ptr noundef @.str.655, i32 noundef %19)
  store i32 %20, ptr %8, align 4
  %21 = load i32, ptr %8, align 4
  ret i32 %21
}

; Function Attrs: null_pointer_is_valid sspstrong uwtable
define internal i32 @iremotewinspool_dissect_element_winspool_AsyncAddPrintProcessor_pPathName(ptr noundef %0, i32 noundef %1, ptr noundef %2, ptr noundef %3, ptr noundef %4, ptr noundef %5) #0 {
  %7 = alloca ptr, align 8
  %8 = alloca i32, align 4
  %9 = alloca ptr, align 8
  %10 = alloca ptr, align 8
  %11 = alloca ptr, align 8
  %12 = alloca ptr, align 8
  store ptr %0, ptr %7, align 8
  store i32 %1, ptr %8, align 4
  store ptr %2, ptr %9, align 8
  store ptr %3, ptr %10, align 8
  store ptr %4, ptr %11, align 8
  store ptr %5, ptr %12, align 8
  %13 = load ptr, ptr %7, align 8
  %14 = load i32, ptr %8, align 4
  %15 = load ptr, ptr %9, align 8
  %16 = load ptr, ptr %10, align 8
  %17 = load ptr, ptr %11, align 8
  %18 = load ptr, ptr %12, align 8
  %19 = load i32, ptr @hf_iremotewinspool_winspool_AsyncAddPrintProcessor_pPathName, align 4
  %20 = call i32 @dissect_ndr_toplevel_pointer(ptr noundef %13, i32 noundef %14, ptr noundef %15, ptr noundef %16, ptr noundef %17, ptr noundef %18, ptr noundef @iremotewinspool_dissect_element_winspool_AsyncAddPrintProcessor_pPathName_, i32 noundef 1, ptr noundef @.str.654, i32 noundef %19)
  store i32 %20, ptr %8, align 4
  %21 = load i32, ptr %8, align 4
  ret i32 %21
}

; Function Attrs: null_pointer_is_valid sspstrong uwtable
define internal i32 @iremotewinspool_dissect_element_winspool_AsyncAddPrintProcessor_pEnvironment(ptr noundef %0, i32 noundef %1, ptr noundef %2, ptr noundef %3, ptr noundef %4, ptr noundef %5) #0 {
  %7 = alloca ptr, align 8
  %8 = alloca i32, align 4
  %9 = alloca ptr, align 8
  %10 = alloca ptr, align 8
  %11 = alloca ptr, align 8
  %12 = alloca ptr, align 8
  store ptr %0, ptr %7, align 8
  store i32 %1, ptr %8, align 4
  store ptr %2, ptr %9, align 8
  store ptr %3, ptr %10, align 8
  store ptr %4, ptr %11, align 8
  store ptr %5, ptr %12, align 8
  %13 = load ptr, ptr %7, align 8
  %14 = load i32, ptr %8, align 4
  %15 = load ptr, ptr %9, align 8
  %16 = load ptr, ptr %10, align 8
  %17 = load ptr, ptr %11, align 8
  %18 = load ptr, ptr %12, align 8
  %19 = load i32, ptr @hf_iremotewinspool_winspool_AsyncAddPrintProcessor_pEnvironment, align 4
  %20 = call i32 @dissect_ndr_toplevel_pointer(ptr noundef %13, i32 noundef %14, ptr noundef %15, ptr noundef %16, ptr noundef %17, ptr noundef %18, ptr noundef @iremotewinspool_dissect_element_winspool_AsyncAddPrintProcessor_pEnvironment_, i32 noundef 1, ptr noundef @.str.627, i32 noundef %19)
  store i32 %20, ptr %8, align 4
  %21 = load i32, ptr %8, align 4
  ret i32 %21
}

; Function Attrs: null_pointer_is_valid sspstrong uwtable
define internal i32 @iremotewinspool_dissect_element_winspool_AsyncAddPrintProcessor_pName(ptr noundef %0, i32 noundef %1, ptr noundef %2, ptr noundef %3, ptr noundef %4, ptr noundef %5) #0 {
  %7 = alloca ptr, align 8
  %8 = alloca i32, align 4
  %9 = alloca ptr, align 8
  %10 = alloca ptr, align 8
  %11 = alloca ptr, align 8
  %12 = alloca ptr, align 8
  store ptr %0, ptr %7, align 8
  store i32 %1, ptr %8, align 4
  store ptr %2, ptr %9, align 8
  store ptr %3, ptr %10, align 8
  store ptr %4, ptr %11, align 8
  store ptr %5, ptr %12, align 8
  %13 = load ptr, ptr %7, align 8
  %14 = load i32, ptr %8, align 4
  %15 = load ptr, ptr %9, align 8
  %16 = load ptr, ptr %10, align 8
  %17 = load ptr, ptr %11, align 8
  %18 = load ptr, ptr %12, align 8
  %19 = load i32, ptr @hf_iremotewinspool_winspool_AsyncAddPrintProcessor_pName, align 4
  %20 = call i32 @dissect_ndr_toplevel_pointer(ptr noundef %13, i32 noundef %14, ptr noundef %15, ptr noundef %16, ptr noundef %17, ptr noundef %18, ptr noundef @iremotewinspool_dissect_element_winspool_AsyncAddPrintProcessor_pName_, i32 noundef 2, ptr noundef @.str.606, i32 noundef %19)
  store i32 %20, ptr %8, align 4
  %21 = load i32, ptr %8, align 4
  ret i32 %21
}

; Function Attrs: null_pointer_is_valid sspstrong uwtable
define internal i32 @iremotewinspool_dissect_winspool_AsyncAddPrintProcessor_request(ptr noundef %0, i32 noundef %1, ptr noundef %2, ptr noundef %3, ptr noundef %4, ptr noundef %5) #0 {
  %7 = alloca ptr, align 8
  %8 = alloca i32, align 4
  %9 = alloca ptr, align 8
  %10 = alloca ptr, align 8
  %11 = alloca ptr, align 8
  %12 = alloca ptr, align 8
  store ptr %0, ptr %7, align 8
  store i32 %1, ptr %8, align 4
  store ptr %2, ptr %9, align 8
  store ptr %3, ptr %10, align 8
  store ptr %4, ptr %11, align 8
  store ptr %5, ptr %12, align 8
  %13 = load ptr, ptr %11, align 8
  %14 = getelementptr inbounds nuw %struct._dcerpc_info, ptr %13, i32 0, i32 15
  store ptr @.str.567, ptr %14, align 8
  %15 = load ptr, ptr %7, align 8
  %16 = load i32, ptr %8, align 4
  %17 = load ptr, ptr %9, align 8
  %18 = load ptr, ptr %10, align 8
  %19 = load ptr, ptr %11, align 8
  %20 = load ptr, ptr %12, align 8
  %21 = call i32 @iremotewinspool_dissect_element_winspool_AsyncAddPrintProcessor_pName(ptr noundef %15, i32 noundef %16, ptr noundef %17, ptr noundef %18, ptr noundef %19, ptr noundef %20)
  store i32 %21, ptr %8, align 4
  %22 = load ptr, ptr %9, align 8
  %23 = load ptr, ptr %7, align 8
  %24 = load i32, ptr %8, align 4
  %25 = load ptr, ptr %11, align 8
  %26 = load ptr, ptr %12, align 8
  %27 = call i32 @dissect_deferred_pointers(ptr noundef %22, ptr noundef %23, i32 noundef %24, ptr noundef %25, ptr noundef %26)
  store i32 %27, ptr %8, align 4
  %28 = load ptr, ptr %7, align 8
  %29 = load i32, ptr %8, align 4
  %30 = load ptr, ptr %9, align 8
  %31 = load ptr, ptr %10, align 8
  %32 = load ptr, ptr %11, align 8
  %33 = load ptr, ptr %12, align 8
  %34 = call i32 @iremotewinspool_dissect_element_winspool_AsyncAddPrintProcessor_pEnvironment(ptr noundef %28, i32 noundef %29, ptr noundef %30, ptr noundef %31, ptr noundef %32, ptr noundef %33)
  store i32 %34, ptr %8, align 4
  %35 = load ptr, ptr %9, align 8
  %36 = load ptr, ptr %7, align 8
  %37 = load i32, ptr %8, align 4
  %38 = load ptr, ptr %11, align 8
  %39 = load ptr, ptr %12, align 8
  %40 = call i32 @dissect_deferred_pointers(ptr noundef %35, ptr noundef %36, i32 noundef %37, ptr noundef %38, ptr noundef %39)
  store i32 %40, ptr %8, align 4
  %41 = load ptr, ptr %7, align 8
  %42 = load i32, ptr %8, align 4
  %43 = load ptr, ptr %9, align 8
  %44 = load ptr, ptr %10, align 8
  %45 = load ptr, ptr %11, align 8
  %46 = load ptr, ptr %12, align 8
  %47 = call i32 @iremotewinspool_dissect_element_winspool_AsyncAddPrintProcessor_pPathName(ptr noundef %41, i32 noundef %42, ptr noundef %43, ptr noundef %44, ptr noundef %45, ptr noundef %46)
  store i32 %47, ptr %8, align 4
  %48 = load ptr, ptr %9, align 8
  %49 = load ptr, ptr %7, align 8
  %50 = load i32, ptr %8, align 4
  %51 = load ptr, ptr %11, align 8
  %52 = load ptr, ptr %12, align 8
  %53 = call i32 @dissect_deferred_pointers(ptr noundef %48, ptr noundef %49, i32 noundef %50, ptr noundef %51, ptr noundef %52)
  store i32 %53, ptr %8, align 4
  %54 = load ptr, ptr %7, align 8
  %55 = load i32, ptr %8, align 4
  %56 = load ptr, ptr %9, align 8
  %57 = load ptr, ptr %10, align 8
  %58 = load ptr, ptr %11, align 8
  %59 = load ptr, ptr %12, align 8
  %60 = call i32 @iremotewinspool_dissect_element_winspool_AsyncAddPrintProcessor_pPrintProcessorName(ptr noundef %54, i32 noundef %55, ptr noundef %56, ptr noundef %57, ptr noundef %58, ptr noundef %59)
  store i32 %60, ptr %8, align 4
  %61 = load ptr, ptr %9, align 8
  %62 = load ptr, ptr %7, align 8
  %63 = load i32, ptr %8, align 4
  %64 = load ptr, ptr %11, align 8
  %65 = load ptr, ptr %12, align 8
  %66 = call i32 @dissect_deferred_pointers(ptr noundef %61, ptr noundef %62, i32 noundef %63, ptr noundef %64, ptr noundef %65)
  store i32 %66, ptr %8, align 4
  %67 = load i32, ptr %8, align 4
  ret i32 %67
}